(dp1
S'output'
p2
S"<class 'sqlite3.DatabaseError'> database disk image is malformed"
p3
sS'layer'
p4
S'/Users/brandon/Documents/UCSC/CMPS183/web2py/applications/bykr/controllers/default.py'
p5
sS'code'
p6
S'<code object <module> at 0x1112fe4b0, file "/Users/brandon/Documents/UCSC/CMPS183/web2py/applications/bykr/controllers/default.py", line 8>'
p7
sS'snapshot'
p8
(dp9
S'exception'
p10
(dp11
S'__module__'
p12
S"'sqlite3'"
p13
sS'__getslice__'
p14
S"<method-wrapper '__getslice__' of DatabaseError object>"
p15
sS'__str__'
p16
S"<method-wrapper '__str__' of DatabaseError object>"
p17
sS'__reduce__'
p18
S'<built-in method __reduce__ of DatabaseError object>'
p19
sS'__dict__'
p20
S'{}'
p21
sS'__sizeof__'
p22
S'<built-in method __sizeof__ of DatabaseError object>'
p23
sS'__weakref__'
p24
S'None'
p25
sS'message'
p26
S"'database disk image is malformed'"
p27
sS'__init__'
p28
S"<method-wrapper '__init__' of DatabaseError object>"
p29
sS'__setattr__'
p30
S"<method-wrapper '__setattr__' of DatabaseError object>"
p31
sS'__reduce_ex__'
p32
S'<built-in method __reduce_ex__ of DatabaseError object>'
p33
sS'__new__'
p34
S'<built-in method __new__ of type object>'
p35
sS'__format__'
p36
S'<built-in method __format__ of DatabaseError object>'
p37
sS'__class__'
p38
S"<class 'sqlite3.DatabaseError'>"
p39
sS'__doc__'
p40
S'None'
p41
sS'__getitem__'
p42
S"<method-wrapper '__getitem__' of DatabaseError object>"
p43
sS'__setstate__'
p44
S'<built-in method __setstate__ of DatabaseError object>'
p45
sS'__getattribute__'
p46
S"<method-wrapper '__getattribute__' of DatabaseError object>"
p47
sS'args'
p48
S"('database disk image is malformed',)"
p49
sS'__subclasshook__'
p50
S'<built-in method __subclasshook__ of type object>'
p51
sS'__unicode__'
p52
S'<built-in method __unicode__ of DatabaseError object>'
p53
sS'__delattr__'
p54
S"<method-wrapper '__delattr__' of DatabaseError object>"
p55
sS'__repr__'
p56
S"<method-wrapper '__repr__' of DatabaseError object>"
p57
sS'__hash__'
p58
S"<method-wrapper '__hash__' of DatabaseError object>"
p59
ssS'evalue'
p60
S'database disk image is malformed'
p61
sS'request'
p62
cgluon.html
XML_unpickle
p63
(S's+\xa1\x00\x00<div><table><tr><td style="font-weight:bold;vertical-align:top;">ajax</td><td style="vertical-align:top;">:</td><td><div>False</div></td></tr><tr><td style="font-weight:bold;vertical-align:top;">application</td><td style="vertical-align:top;">:</td><td><div>bykr</div></td></tr><tr><td style="font-weight:bold;vertical-align:top;">args</td><td style="vertical-align:top;">:</td><td><div><table><tr><td><div>profile</div></td></tr></table></div></td></tr><tr><td style="font-weight:bold;vertical-align:top;">cid</td><td style="vertical-align:top;">:</td><td><div>None</div></td></tr><tr><td style="font-weight:bold;vertical-align:top;">client</td><td style="vertical-align:top;">:</td><td><div>127.0.0.1</div></td></tr><tr><td style="font-weight:bold;vertical-align:top;">controller</td><td style="vertical-align:top;">:</td><td><div>default</div></td></tr><tr><td style="font-weight:bold;vertical-align:top;">cookies</td><td style="vertical-align:top;">:</td><td><div><table><tr><td style="font-weight:bold;vertical-align:top;">session_id_admin</td><td style="vertical-align:top;">:</td><td><div>127.0.0.1-00a93a94-4539-4b28-967c-36cf4331a9db<table><tr><td style="font-weight:bold;vertical-align:top;">comment</td><td style="vertical-align:top;">:</td><td><div></div></td></tr><tr><td style="font-weight:bold;vertical-align:top;">domain</td><td style="vertical-align:top;">:</td><td><div></div></td></tr><tr><td style="font-weight:bold;vertical-align:top;">expires</td><td style="vertical-align:top;">:</td><td><div></div></td></tr><tr><td style="font-weight:bold;vertical-align:top;">httponly</td><td style="vertical-align:top;">:</td><td><div></div></td></tr><tr><td style="font-weight:bold;vertical-align:top;">max-age</td><td style="vertical-align:top;">:</td><td><div></div></td></tr><tr><td style="font-weight:bold;vertical-align:top;">path</td><td style="vertical-align:top;">:</td><td><div></div></td></tr><tr><td style="font-weight:bold;vertical-align:top;">samesite</td><td style="vertical-align:top;">:</td><td><div></div></td></tr><tr><td style="font-weight:bold;vertical-align:top;">secure</td><td style="vertical-align:top;">:</td><td><div></div></td></tr><tr><td style="font-weight:bold;vertical-align:top;">version</td><td style="vertical-align:top;">:</td><td><div></div></td></tr></table></div></td></tr><tr><td style="font-weight:bold;vertical-align:top;">session_id_bykr</td><td style="vertical-align:top;">:</td><td><div>127.0.0.1-8049ec63-9b87-4710-a34c-5addda91bf0b<table><tr><td style="font-weight:bold;vertical-align:top;">comment</td><td style="vertical-align:top;">:</td><td><div></div></td></tr><tr><td style="font-weight:bold;vertical-align:top;">domain</td><td style="vertical-align:top;">:</td><td><div></div></td></tr><tr><td style="font-weight:bold;vertical-align:top;">expires</td><td style="vertical-align:top;">:</td><td><div></div></td></tr><tr><td style="font-weight:bold;vertical-align:top;">httponly</td><td style="vertical-align:top;">:</td><td><div></div></td></tr><tr><td style="font-weight:bold;vertical-align:top;">max-age</td><td style="vertical-align:top;">:</td><td><div></div></td></tr><tr><td style="font-weight:bold;vertical-align:top;">path</td><td style="vertical-align:top;">:</td><td><div></div></td></tr><tr><td style="font-weight:bold;vertical-align:top;">samesite</td><td style="vertical-align:top;">:</td><td><div></div></td></tr><tr><td style="font-weight:bold;vertical-align:top;">secure</td><td style="vertical-align:top;">:</td><td><div></div></td></tr><tr><td style="font-weight:bold;vertical-align:top;">version</td><td style="vertical-align:top;">:</td><td><div></div></td></tr></table></div></td></tr><tr><td style="font-weight:bold;vertical-align:top;">session_id_g1</td><td style="vertical-align:top;">:</td><td><div>1:cbf4681b-aa31-4daa-8121-fd81fbe4c85b<table><tr><td style="font-weight:bold;vertical-align:top;">comment</td><td style="vertical-align:top;">:</td><td><div></div></td></tr><tr><td style="font-weight:bold;vertical-align:top;">domain</td><td style="vertical-align:top;">:</td><td><div></div></td></tr><tr><td style="font-weight:bold;vertical-align:top;">expires</td><td style="vertical-align:top;">:</td><td><div></div></td></tr><tr><td style="font-weight:bold;vertical-align:top;">httponly</td><td style="vertical-align:top;">:</td><td><div></div></td></tr><tr><td style="font-weight:bold;vertical-align:top;">max-age</td><td style="vertical-align:top;">:</td><td><div></div></td></tr><tr><td style="font-weight:bold;vertical-align:top;">path</td><td style="vertical-align:top;">:</td><td><div></div></td></tr><tr><td style="font-weight:bold;vertical-align:top;">samesite</td><td style="vertical-align:top;">:</td><td><div></div></td></tr><tr><td style="font-weight:bold;vertical-align:top;">secure</td><td style="vertical-align:top;">:</td><td><div></div></td></tr><tr><td style="font-weight:bold;vertical-align:top;">version</td><td style="vertical-align:top;">:</td><td><div></div></td></tr></table></div></td></tr><tr><td style="font-weight:bold;vertical-align:top;">session_id_g2</td><td style="vertical-align:top;">:</td><td><div>1:a166c6ae-9cf7-419f-b152-ac386d30c8b5<table><tr><td style="font-weight:bold;vertical-align:top;">comment</td><td style="vertical-align:top;">:</td><td><div></div></td></tr><tr><td style="font-weight:bold;vertical-align:top;">domain</td><td style="vertical-align:top;">:</td><td><div></div></td></tr><tr><td style="font-weight:bold;vertical-align:top;">expires</td><td style="vertical-align:top;">:</td><td><div></div></td></tr><tr><td style="font-weight:bold;vertical-align:top;">httponly</td><td style="vertical-align:top;">:</td><td><div></div></td></tr><tr><td style="font-weight:bold;vertical-align:top;">max-age</td><td style="vertical-align:top;">:</td><td><div></div></td></tr><tr><td style="font-weight:bold;vertical-align:top;">path</td><td style="vertical-align:top;">:</td><td><div></div></td></tr><tr><td style="font-weight:bold;vertical-align:top;">samesite</td><td style="vertical-align:top;">:</td><td><div></div></td></tr><tr><td style="font-weight:bold;vertical-align:top;">secure</td><td style="vertical-align:top;">:</td><td><div></div></td></tr><tr><td style="font-weight:bold;vertical-align:top;">version</td><td style="vertical-align:top;">:</td><td><div></div></td></tr></table></div></td></tr><tr><td style="font-weight:bold;vertical-align:top;">session_id_g3</td><td style="vertical-align:top;">:</td><td><div>1:79878485-ff5a-4d0c-ad9b-554b555742d3<table><tr><td style="font-weight:bold;vertical-align:top;">comment</td><td style="vertical-align:top;">:</td><td><div></div></td></tr><tr><td style="font-weight:bold;vertical-align:top;">domain</td><td style="vertical-align:top;">:</td><td><div></div></td></tr><tr><td style="font-weight:bold;vertical-align:top;">expires</td><td style="vertical-align:top;">:</td><td><div></div></td></tr><tr><td style="font-weight:bold;vertical-align:top;">httponly</td><td style="vertical-align:top;">:</td><td><div></div></td></tr><tr><td style="font-weight:bold;vertical-align:top;">max-age</td><td style="vertical-align:top;">:</td><td><div></div></td></tr><tr><td style="font-weight:bold;vertical-align:top;">path</td><td style="vertical-align:top;">:</td><td><div></div></td></tr><tr><td style="font-weight:bold;vertical-align:top;">samesite</td><td style="vertical-align:top;">:</td><td><div></div></td></tr><tr><td style="font-weight:bold;vertical-align:top;">secure</td><td style="vertical-align:top;">:</td><td><div></div></td></tr><tr><td style="font-weight:bold;vertical-align:top;">version</td><td style="vertical-align:top;">:</td><td><div></div></td></tr></table></div></td></tr><tr><td style="font-weight:bold;vertical-align:top;">session_id_g4</td><td style="vertical-align:top;">:</td><td><div>1:826f83ae-c035-4754-80f2-dd3180b60dc5<table><tr><td style="font-weight:bold;vertical-align:top;">comment</td><td style="vertical-align:top;">:</td><td><div></div></td></tr><tr><td style="font-weight:bold;vertical-align:top;">domain</td><td style="vertical-align:top;">:</td><td><div></div></td></tr><tr><td style="font-weight:bold;vertical-align:top;">expires</td><td style="vertical-align:top;">:</td><td><div></div></td></tr><tr><td style="font-weight:bold;vertical-align:top;">httponly</td><td style="vertical-align:top;">:</td><td><div></div></td></tr><tr><td style="font-weight:bold;vertical-align:top;">max-age</td><td style="vertical-align:top;">:</td><td><div></div></td></tr><tr><td style="font-weight:bold;vertical-align:top;">path</td><td style="vertical-align:top;">:</td><td><div></div></td></tr><tr><td style="font-weight:bold;vertical-align:top;">samesite</td><td style="vertical-align:top;">:</td><td><div></div></td></tr><tr><td style="font-weight:bold;vertical-align:top;">secure</td><td style="vertical-align:top;">:</td><td><div></div></td></tr><tr><td style="font-weight:bold;vertical-align:top;">version</td><td style="vertical-align:top;">:</td><td><div></div></td></tr></table></div></td></tr><tr><td style="font-weight:bold;vertical-align:top;">session_id_g5</td><td style="vertical-align:top;">:</td><td><div>1:75913a2c-a77d-49b7-bc01-8ef16dac81a8<table><tr><td style="font-weight:bold;vertical-align:top;">comment</td><td style="vertical-align:top;">:</td><td><div></div></td></tr><tr><td style="font-weight:bold;vertical-align:top;">domain</td><td style="vertical-align:top;">:</td><td><div></div></td></tr><tr><td style="font-weight:bold;vertical-align:top;">expires</td><td style="vertical-align:top;">:</td><td><div></div></td></tr><tr><td style="font-weight:bold;vertical-align:top;">httponly</td><td style="vertical-align:top;">:</td><td><div></div></td></tr><tr><td style="font-weight:bold;vertical-align:top;">max-age</td><td style="vertical-align:top;">:</td><td><div></div></td></tr><tr><td style="font-weight:bold;vertical-align:top;">path</td><td style="vertical-align:top;">:</td><td><div></div></td></tr><tr><td style="font-weight:bold;vertical-align:top;">samesite</td><td style="vertical-align:top;">:</td><td><div></div></td></tr><tr><td style="font-weight:bold;vertical-align:top;">secure</td><td style="vertical-align:top;">:</td><td><div></div></td></tr><tr><td style="font-weight:bold;vertical-align:top;">version</td><td style="vertical-align:top;">:</td><td><div></div></td></tr></table></div></td></tr><tr><td style="font-weight:bold;vertical-align:top;">session_id_g6</td><td style="vertical-align:top;">:</td><td><div>1:0bc7307c-1e43-4996-a7ec-b0b69db3a2a5<table><tr><td style="font-weight:bold;vertical-align:top;">comment</td><td style="vertical-align:top;">:</td><td><div></div></td></tr><tr><td style="font-weight:bold;vertical-align:top;">domain</td><td style="vertical-align:top;">:</td><td><div></div></td></tr><tr><td style="font-weight:bold;vertical-align:top;">expires</td><td style="vertical-align:top;">:</td><td><div></div></td></tr><tr><td style="font-weight:bold;vertical-align:top;">httponly</td><td style="vertical-align:top;">:</td><td><div></div></td></tr><tr><td style="font-weight:bold;vertical-align:top;">max-age</td><td style="vertical-align:top;">:</td><td><div></div></td></tr><tr><td style="font-weight:bold;vertical-align:top;">path</td><td style="vertical-align:top;">:</td><td><div></div></td></tr><tr><td style="font-weight:bold;vertical-align:top;">samesite</td><td style="vertical-align:top;">:</td><td><div></div></td></tr><tr><td style="font-weight:bold;vertical-align:top;">secure</td><td style="vertical-align:top;">:</td><td><div></div></td></tr><tr><td style="font-weight:bold;vertical-align:top;">version</td><td style="vertical-align:top;">:</td><td><div></div></td></tr></table></div></td></tr><tr><td style="font-weight:bold;vertical-align:top;">session_id_g7</td><td style="vertical-align:top;">:</td><td><div>1:78fa8e37-26d2-46c6-a01b-45a075861cd7<table><tr><td style="font-weight:bold;vertical-align:top;">comment</td><td style="vertical-align:top;">:</td><td><div></div></td></tr><tr><td style="font-weight:bold;vertical-align:top;">domain</td><td style="vertical-align:top;">:</td><td><div></div></td></tr><tr><td style="font-weight:bold;vertical-align:top;">expires</td><td style="vertical-align:top;">:</td><td><div></div></td></tr><tr><td style="font-weight:bold;vertical-align:top;">httponly</td><td style="vertical-align:top;">:</td><td><div></div></td></tr><tr><td style="font-weight:bold;vertical-align:top;">max-age</td><td style="vertical-align:top;">:</td><td><div></div></td></tr><tr><td style="font-weight:bold;vertical-align:top;">path</td><td style="vertical-align:top;">:</td><td><div></div></td></tr><tr><td style="font-weight:bold;vertical-align:top;">samesite</td><td style="vertical-align:top;">:</td><td><div></div></td></tr><tr><td style="font-weight:bold;vertical-align:top;">secure</td><td style="vertical-align:top;">:</td><td><div></div></td></tr><tr><td style="font-weight:bold;vertical-align:top;">version</td><td style="vertical-align:top;">:</td><td><div></div></td></tr></table></div></td></tr><tr><td style="font-weight:bold;vertical-align:top;">session_id_hw10292018</td><td style="vertical-align:top;">:</td><td><div>1:c8d31449-67f0-4602-a90e-3f8c22a36d34<table><tr><td style="font-weight:bold;vertical-align:top;">comment</td><td style="vertical-align:top;">:</td><td><div></div></td></tr><tr><td style="font-weight:bold;vertical-align:top;">domain</td><td style="vertical-align:top;">:</td><td><div></div></td></tr><tr><td style="font-weight:bold;vertical-align:top;">expires</td><td style="vertical-align:top;">:</td><td><div></div></td></tr><tr><td style="font-weight:bold;vertical-align:top;">httponly</td><td style="vertical-align:top;">:</td><td><div></div></td></tr><tr><td style="font-weight:bold;vertical-align:top;">max-age</td><td style="vertical-align:top;">:</td><td><div></div></td></tr><tr><td style="font-weight:bold;vertical-align:top;">path</td><td style="vertical-align:top;">:</td><td><div></div></td></tr><tr><td style="font-weight:bold;vertical-align:top;">samesite</td><td style="vertical-align:top;">:</td><td><div></div></td></tr><tr><td style="font-weight:bold;vertical-align:top;">secure</td><td style="vertical-align:top;">:</td><td><div></div></td></tr><tr><td style="font-weight:bold;vertical-align:top;">version</td><td style="vertical-align:top;">:</td><td><div></div></td></tr></table></div></td></tr><tr><td style="font-weight:bold;vertical-align:top;">session_id_hw2</td><td style="vertical-align:top;">:</td><td><div>1:0b543690-faae-4d24-824a-559d6c52e3ff<table><tr><td style="font-weight:bold;vertical-align:top;">comment</td><td style="vertical-align:top;">:</td><td><div></div></td></tr><tr><td style="font-weight:bold;vertical-align:top;">domain</td><td style="vertical-align:top;">:</td><td><div></div></td></tr><tr><td style="font-weight:bold;vertical-align:top;">expires</td><td style="vertical-align:top;">:</td><td><div></div></td></tr><tr><td style="font-weight:bold;vertical-align:top;">httponly</td><td style="vertical-align:top;">:</td><td><div></div></td></tr><tr><td style="font-weight:bold;vertical-align:top;">max-age</td><td style="vertical-align:top;">:</td><td><div></div></td></tr><tr><td style="font-weight:bold;vertical-align:top;">path</td><td style="vertical-align:top;">:</td><td><div></div></td></tr><tr><td style="font-weight:bold;vertical-align:top;">samesite</td><td style="vertical-align:top;">:</td><td><div></div></td></tr><tr><td style="font-weight:bold;vertical-align:top;">secure</td><td style="vertical-align:top;">:</td><td><div></div></td></tr><tr><td style="font-weight:bold;vertical-align:top;">version</td><td style="vertical-align:top;">:</td><td><div></div></td></tr></table></div></td></tr><tr><td style="font-weight:bold;vertical-align:top;">session_id_hw4</td><td style="vertical-align:top;">:</td><td><div>2:fd3985ab-a9a2-4bbf-85dd-c37be15a1675<table><tr><td style="font-weight:bold;vertical-align:top;">comment</td><td style="vertical-align:top;">:</td><td><div></div></td></tr><tr><td style="font-weight:bold;vertical-align:top;">domain</td><td style="vertical-align:top;">:</td><td><div></div></td></tr><tr><td style="font-weight:bold;vertical-align:top;">expires</td><td style="vertical-align:top;">:</td><td><div></div></td></tr><tr><td style="font-weight:bold;vertical-align:top;">httponly</td><td style="vertical-align:top;">:</td><td><div></div></td></tr><tr><td style="font-weight:bold;vertical-align:top;">max-age</td><td style="vertical-align:top;">:</td><td><div></div></td></tr><tr><td style="font-weight:bold;vertical-align:top;">path</td><td style="vertical-align:top;">:</td><td><div></div></td></tr><tr><td style="font-weight:bold;vertical-align:top;">samesite</td><td style="vertical-align:top;">:</td><td><div></div></td></tr><tr><td style="font-weight:bold;vertical-align:top;">secure</td><td style="vertical-align:top;">:</td><td><div></div></td></tr><tr><td style="font-weight:bold;vertical-align:top;">version</td><td style="vertical-align:top;">:</td><td><div></div></td></tr></table></div></td></tr><tr><td style="font-weight:bold;vertical-align:top;">session_id_reference</td><td style="vertical-align:top;">:</td><td><div>8:d97ca6f8-6b71-4b5c-bb48-5f3eaa35698f<table><tr><td style="font-weight:bold;vertical-align:top;">comment</td><td style="vertical-align:top;">:</td><td><div></div></td></tr><tr><td style="font-weight:bold;vertical-align:top;">domain</td><td style="vertical-align:top;">:</td><td><div></div></td></tr><tr><td style="font-weight:bold;vertical-align:top;">expires</td><td style="vertical-align:top;">:</td><td><div></div></td></tr><tr><td style="font-weight:bold;vertical-align:top;">httponly</td><td style="vertical-align:top;">:</td><td><div></div></td></tr><tr><td style="font-weight:bold;vertical-align:top;">max-age</td><td style="vertical-align:top;">:</td><td><div></div></td></tr><tr><td style="font-weight:bold;vertical-align:top;">path</td><td style="vertical-align:top;">:</td><td><div></div></td></tr><tr><td style="font-weight:bold;vertical-align:top;">samesite</td><td style="vertical-align:top;">:</td><td><div></div></td></tr><tr><td style="font-weight:bold;vertical-align:top;">secure</td><td style="vertical-align:top;">:</td><td><div></div></td></tr><tr><td style="font-weight:bold;vertical-align:top;">version</td><td style="vertical-align:top;">:</td><td><div></div></td></tr></table></div></td></tr><tr><td style="font-weight:bold;vertical-align:top;">session_id_welcome</td><td style="vertical-align:top;">:</td><td><div>127.0.0.1-e53f5100-3267-415c-8e6a-def329c40cd8<table><tr><td style="font-weight:bold;vertical-align:top;">comment</td><td style="vertical-align:top;">:</td><td><div></div></td></tr><tr><td style="font-weight:bold;vertical-align:top;">domain</td><td style="vertical-align:top;">:</td><td><div></div></td></tr><tr><td style="font-weight:bold;vertical-align:top;">expires</td><td style="vertical-align:top;">:</td><td><div></div></td></tr><tr><td style="font-weight:bold;vertical-align:top;">httponly</td><td style="vertical-align:top;">:</td><td><div></div></td></tr><tr><td style="font-weight:bold;vertical-align:top;">max-age</td><td style="vertical-align:top;">:</td><td><div></div></td></tr><tr><td style="font-weight:bold;vertical-align:top;">path</td><td style="vertical-align:top;">:</td><td><div></div></td></tr><tr><td style="font-weight:bold;vertical-align:top;">samesite</td><td style="vertical-align:top;">:</td><td><div></div></td></tr><tr><td style="font-weight:bold;vertical-align:top;">secure</td><td style="vertical-align:top;">:</td><td><div></div></td></tr><tr><td style="font-weight:bold;vertical-align:top;">version</td><td style="vertical-align:top;">:</td><td><div></div></td></tr></table></div></td></tr></table></div></td></tr><tr><td style="font-weight:bold;vertical-align:top;">env</td><td style="vertical-align:top;">:</td><td><div><table><tr><td style="font-weight:bold;vertical-align:top;">HTTP_ACCEPT</td><td style="vertical-align:top;">:</td><td><div>text/html,application/xhtml+xml,application/xml;q=0.9,image/webp,image/apng,*/*;q=0.8</div></td></tr><tr><td style="font-weight:bold;vertical-align:top;">HTTP_ACCEPT_ENCODING</td><td style="vertical-align:top;">:</td><td><div>gzip, deflate, br</div></td></tr><tr><td style="font-weight:bold;vertical-align:top;">HTTP_ACCEPT_LANGUAGE</td><td style="vertical-align:top;">:</td><td><div>en-US,en;q=0.9</div></td></tr><tr><td style="font-weight:bold;vertical-align:top;">HTTP_CACHE_CONTROL</td><td style="vertical-align:top;">:</td><td><div>no-cache</div></td></tr><tr><td style="font-weight:bold;vertical-align:top;">HTTP_CONNECTION</td><td style="vertical-align:top;">:</td><td><div>keep-alive</div></td></tr><tr><td style="font-weight:bold;vertical-align:top;">HTTP_COOKIE</td><td style="vertical-align:top;">:</td><td><div>session_id_hw2=&quot;1:0b543690-faae-4d24-824a-559d6c52e3ff&quot;; session_id_hw10292018=&quot;1:c8d31449-67f0-4602-a90e-3f8c22a36d34&quot;; session_id_reference=&quot;8:d97ca6f8-6b71-4b5c-bb48-5f3eaa35698f&quot;; session_id_admin=127.0.0.1-00a93a94-4539-4b28-967c-36cf4331a9db; session_id_hw4=&quot;2:fd3985ab-a9a2-4bbf-85dd-c37be15a1675&quot;; session_id_g1=&quot;1:cbf4681b-aa31-4daa-8121-fd81fbe4c85b&quot;; session_id_g2=&quot;1:a166c6ae-9cf7-419f-b152-ac386d30c8b5&quot;; session_id_g3=&quot;1:79878485-ff5a-4d0c-ad9b-554b555742d3&quot;; session_id_g4=&quot;1:826f83ae-c035-4754-80f2-dd3180b60dc5&quot;; session_id_g5=&quot;1:75913a2c-a77d-49b7-bc01-8ef16dac81a8&quot;; session_id_g6=&quot;1:0bc7307c-1e43-4996-a7ec-b0b69db3a2a5&quot;; session_id_g7=&quot;1:78fa8e37-26d2-46c6-a01b-45a075861cd7&quot;; session_id_bykr=127.0.0.1-8049ec63-9b87-4710-a34c-5addda91bf0b; session_id_welcome=127.0.0.1-e53f5100-3267-415c-8e6a-def329c40cd8</div></td></tr><tr><td style="font-weight:bold;vertical-align:top;">HTTP_HOST</td><td style="vertical-align:top;">:</td><td><div>127.0.0.1:8000</div></td></tr><tr><td style="font-weight:bold;vertical-align:top;">HTTP_PRAGMA</td><td style="vertical-align:top;">:</td><td><div>no-cache</div></td></tr><tr><td style="font-weight:bold;vertical-align:top;">HTTP_REFERER</td><td style="vertical-align:top;">:</td><td><div>http://127.0.0.1:8000/bykr/default/search?results=</div></td></tr><tr><td style="font-weight:bold;vertical-align:top;">HTTP_UPGRADE_INSECURE_REQUESTS</td><td style="vertical-align:top;">:</td><td><div>1</div></td></tr><tr><td style="font-weight:bold;vertical-align:top;">HTTP_USER_AGENT</td><td style="vertical-align:top;">:</td><td><div>Mozilla/5.0 (Macintosh; Intel Mac OS X 10_14_1) AppleWebKit/537.36 (KHTML, like Gecko) Chrome/70.0.3538.102 Safari/537.36</div></td></tr><tr><td style="font-weight:bold;vertical-align:top;">PATH_INFO</td><td style="vertical-align:top;">:</td><td><div>/bykr/default/user/profile</div></td></tr><tr><td style="font-weight:bold;vertical-align:top;">QUERY_STRING</td><td style="vertical-align:top;">:</td><td><div></div></td></tr><tr><td style="font-weight:bold;vertical-align:top;">REMOTE_ADDR</td><td style="vertical-align:top;">:</td><td><div>127.0.0.1</div></td></tr><tr><td style="font-weight:bold;vertical-align:top;">REMOTE_PORT</td><td style="vertical-align:top;">:</td><td><div>61565</div></td></tr><tr><td style="font-weight:bold;vertical-align:top;">REQUEST_METHOD</td><td style="vertical-align:top;">:</td><td><div>GET</div></td></tr><tr><td style="font-weight:bold;vertical-align:top;">SCRIPT_NAME</td><td style="vertical-align:top;">:</td><td><div></div></td></tr><tr><td style="font-weight:bold;vertical-align:top;">SERVER_NAME</td><td style="vertical-align:top;">:</td><td><div>Brandons-MBP-3</div></td></tr><tr><td style="font-weight:bold;vertical-align:top;">SERVER_PORT</td><td style="vertical-align:top;">:</td><td><div>8000</div></td></tr><tr><td style="font-weight:bold;vertical-align:top;">SERVER_PROTOCOL</td><td style="vertical-align:top;">:</td><td><div>HTTP/1.1</div></td></tr><tr><td style="font-weight:bold;vertical-align:top;">SERVER_SOFTWARE</td><td style="vertical-align:top;">:</td><td><div>Rocket 1.2.6</div></td></tr><tr><td style="font-weight:bold;vertical-align:top;">app_folders</td><td style="vertical-align:top;">:</td><td><div>set([&#x27;/Users/brandon/Documents/UCSC/CMPS183/web2py/applications/welcome/&#x27;, &#x27;/Users/brandon/Documents/UCSC/CMPS183/web2py/applications/bykr/&#x27;])</div></td></tr><tr><td style="font-weight:bold;vertical-align:top;">applications_parent</td><td style="vertical-align:top;">:</td><td><div>/Users/brandon/Documents/UCSC/CMPS183/web2py</div></td></tr><tr><td style="font-weight:bold;vertical-align:top;">cmd_args</td><td style="vertical-align:top;">:</td><td><div><table></table></div></td></tr><tr><td style="font-weight:bold;vertical-align:top;">cmd_options</td><td style="vertical-align:top;">:</td><td><div>&lt;Values at 0x10a7b7170: {&#x27;verbose&#x27;: False, &#x27;ip&#x27;: &#x27;127.0.0.1&#x27;, &#x27;debuglevel&#x27;: 30, &#x27;with_scheduler&#x27;: False, &#x27;shutdown_timeout&#x27;: 5, &#x27;taskbar&#x27;: False, &#x27;with_coverage&#x27;: False, &#x27;pid_filename&#x27;: &#x27;httpserver.pid&#x27;, &#x27;maxthreads&#x27;: None, &#x27;softcron&#x27;: False, &#x27;server_name&#x27;: &#x27;Brandons-MBP-3&#x27;, &#x27;bpython&#x27;: False, &#x27;nogui&#x27;: False, &#x27;port&#x27;: 8000, &#x27;print_errors&#x27;: False, &#x27;extcron&#x27;: False, &#x27;runcron&#x27;: False, &#x27;run_system_tests&#x27;: False, &#x27;test&#x27;: None, &#x27;folder&#x27;: &#x27;/Users/brandon/Documents/UCSC/CMPS183/web2py&#x27;, &#x27;config&#x27;: &#x27;&#x27;, &#x27;minthreads&#x27;: None, &#x27;shell&#x27;: None, &#x27;run&#x27;: &#x27;&#x27;, &#x27;log_filename&#x27;: &#x27;httpserver.log&#x27;, &#x27;profiler_dir&#x27;: None, &#x27;args&#x27;: [&#x27;&#x27;], &#x27;socket_timeout&#x27;: 5, &#x27;ssl_ca_certificate&#x27;: None, &#x27;scheduler&#x27;: None, &#x27;interfaces&#x27;: None, &#x27;ssl_private_key&#x27;: &#x27;&#x27;, &#x27;gae&#x27;: None, &#x27;password&#x27;: &#x27;******&#x27;, &#x27;request_queue_size&#x27;: 5, &#x27;ssl_certificate&#x27;: &#x27;&#x27;, &#x27;cronjob&#x27;: False, &#x27;numthreads&#x27;: None, &#x27;quiet&#x27;: False, &#x27;import_models&#x27;: False, &#x27;timeout&#x27;: 10, &#x27;plain&#x27;: False, &#x27;nobanner&#x27;: False}&gt;</div></td></tr><tr><td style="font-weight:bold;vertical-align:top;">db_sessions</td><td style="vertical-align:top;">:</td><td><div>set([])</div></td></tr><tr><td style="font-weight:bold;vertical-align:top;">debugging</td><td style="vertical-align:top;">:</td><td><div>False</div></td></tr><tr><td style="font-weight:bold;vertical-align:top;">gluon_parent</td><td style="vertical-align:top;">:</td><td><div>/Users/brandon/Documents/UCSC/CMPS183/web2py</div></td></tr><tr><td style="font-weight:bold;vertical-align:top;">http_accept</td><td style="vertical-align:top;">:</td><td><div>text/html,application/xhtml+xml,application/xml;q=0.9,image/webp,image/apng,*/*;q=0.8</div></td></tr><tr><td style="font-weight:bold;vertical-align:top;">http_accept_encoding</td><td style="vertical-align:top;">:</td><td><div>gzip, deflate, br</div></td></tr><tr><td style="font-weight:bold;vertical-align:top;">http_accept_language</td><td style="vertical-align:top;">:</td><td><div>en-US,en;q=0.9</div></td></tr><tr><td style="font-weight:bold;vertical-align:top;">http_cache_control</td><td style="vertical-align:top;">:</td><td><div>no-cache</div></td></tr><tr><td style="font-weight:bold;vertical-align:top;">http_connection</td><td style="vertical-align:top;">:</td><td><div>keep-alive</div></td></tr><tr><td style="font-weight:bold;vertical-align:top;">http_cookie</td><td style="vertical-align:top;">:</td><td><div>session_id_hw2=&quot;1:0b543690-faae-4d24-824a-559d6c52e3ff&quot;; session_id_hw10292018=&quot;1:c8d31449-67f0-4602-a90e-3f8c22a36d34&quot;; session_id_reference=&quot;8:d97ca6f8-6b71-4b5c-bb48-5f3eaa35698f&quot;; session_id_admin=127.0.0.1-00a93a94-4539-4b28-967c-36cf4331a9db; session_id_hw4=&quot;2:fd3985ab-a9a2-4bbf-85dd-c37be15a1675&quot;; session_id_g1=&quot;1:cbf4681b-aa31-4daa-8121-fd81fbe4c85b&quot;; session_id_g2=&quot;1:a166c6ae-9cf7-419f-b152-ac386d30c8b5&quot;; session_id_g3=&quot;1:79878485-ff5a-4d0c-ad9b-554b555742d3&quot;; session_id_g4=&quot;1:826f83ae-c035-4754-80f2-dd3180b60dc5&quot;; session_id_g5=&quot;1:75913a2c-a77d-49b7-bc01-8ef16dac81a8&quot;; session_id_g6=&quot;1:0bc7307c-1e43-4996-a7ec-b0b69db3a2a5&quot;; session_id_g7=&quot;1:78fa8e37-26d2-46c6-a01b-45a075861cd7&quot;; session_id_bykr=127.0.0.1-8049ec63-9b87-4710-a34c-5addda91bf0b; session_id_welcome=127.0.0.1-e53f5100-3267-415c-8e6a-def329c40cd8</div></td></tr><tr><td style="font-weight:bold;vertical-align:top;">http_host</td><td style="vertical-align:top;">:</td><td><div>127.0.0.1:8000</div></td></tr><tr><td style="font-weight:bold;vertical-align:top;">http_pragma</td><td style="vertical-align:top;">:</td><td><div>no-cache</div></td></tr><tr><td style="font-weight:bold;vertical-align:top;">http_referer</td><td style="vertical-align:top;">:</td><td><div>http://127.0.0.1:8000/bykr/default/search?results=</div></td></tr><tr><td style="font-weight:bold;vertical-align:top;">http_upgrade_insecure_requests</td><td style="vertical-align:top;">:</td><td><div>1</div></td></tr><tr><td style="font-weight:bold;vertical-align:top;">http_user_agent</td><td style="vertical-align:top;">:</td><td><div>Mozilla/5.0 (Macintosh; Intel Mac OS X 10_14_1) AppleWebKit/537.36 (KHTML, like Gecko) Chrome/70.0.3538.102 Safari/537.36</div></td></tr><tr><td style="font-weight:bold;vertical-align:top;">is_jython</td><td style="vertical-align:top;">:</td><td><div>False</div></td></tr><tr><td style="font-weight:bold;vertical-align:top;">is_py2</td><td style="vertical-align:top;">:</td><td><div>True</div></td></tr><tr><td style="font-weight:bold;vertical-align:top;">is_pypy</td><td style="vertical-align:top;">:</td><td><div>False</div></td></tr><tr><td style="font-weight:bold;vertical-align:top;">is_source</td><td style="vertical-align:top;">:</td><td><div>True</div></td></tr><tr><td style="font-weight:bold;vertical-align:top;">local_hosts</td><td style="vertical-align:top;">:</td><td><div><table><tr><td><div>Brandons-MBP-3</div></td></tr><tr><td><div>::ffff:127.0.0.1</div></td></tr><tr><td><div>::1</div></td></tr><tr><td><div>154.1.168.192.in-addr.arpa</div></td></tr><tr><td><div>127.0.0.1</div></td></tr><tr><td><div>192.168.1.154</div></td></tr></table></div></td></tr><tr><td style="font-weight:bold;vertical-align:top;">path_info</td><td style="vertical-align:top;">:</td><td><div>/bykr/default/user/profile</div></td></tr><tr><td style="font-weight:bold;vertical-align:top;">query_string</td><td style="vertical-align:top;">:</td><td><div></div></td></tr><tr><td style="font-weight:bold;vertical-align:top;">remote_addr</td><td style="vertical-align:top;">:</td><td><div>127.0.0.1</div></td></tr><tr><td style="font-weight:bold;vertical-align:top;">remote_port</td><td style="vertical-align:top;">:</td><td><div>61565</div></td></tr><tr><td style="font-weight:bold;vertical-align:top;">request_method</td><td style="vertical-align:top;">:</td><td><div>GET</div></td></tr><tr><td style="font-weight:bold;vertical-align:top;">request_uri</td><td style="vertical-align:top;">:</td><td><div>/bykr/default/user/profile</div></td></tr><tr><td style="font-weight:bold;vertical-align:top;">script_name</td><td style="vertical-align:top;">:</td><td><div></div></td></tr><tr><td style="font-weight:bold;vertical-align:top;">server_name</td><td style="vertical-align:top;">:</td><td><div>Brandons-MBP-3</div></td></tr><tr><td style="font-weight:bold;vertical-align:top;">server_port</td><td style="vertical-align:top;">:</td><td><div>8000</div></td></tr><tr><td style="font-weight:bold;vertical-align:top;">server_protocol</td><td style="vertical-align:top;">:</td><td><div>HTTP/1.1</div></td></tr><tr><td style="font-weight:bold;vertical-align:top;">server_software</td><td style="vertical-align:top;">:</td><td><div>Rocket 1.2.6</div></td></tr><tr><td style="font-weight:bold;vertical-align:top;">web2py_path</td><td style="vertical-align:top;">:</td><td><div>/Users/brandon/Documents/UCSC/CMPS183/web2py</div></td></tr><tr><td style="font-weight:bold;vertical-align:top;">web2py_version</td><td style="vertical-align:top;">:</td><td><div>2.17.2-stable+timestamp.2018.10.06.18.54.02</div></td></tr><tr><td style="font-weight:bold;vertical-align:top;">wsgi.errors</td><td style="vertical-align:top;">:</td><td><div>&lt;open file &#x27;&lt;stderr&gt;&#x27;, mode &#x27;w&#x27; at 0x108f5e1e0&gt;</div></td></tr><tr><td style="font-weight:bold;vertical-align:top;">wsgi.file_wrapper</td><td style="vertical-align:top;">:</td><td><div>&lt;class wsgiref.util.FileWrapper at 0x10a75dd50&gt;</div></td></tr><tr><td style="font-weight:bold;vertical-align:top;">wsgi.input</td><td style="vertical-align:top;">:</td><td><div>&lt;socket._fileobject object at 0x1111cf7d0&gt;</div></td></tr><tr><td style="font-weight:bold;vertical-align:top;">wsgi.multiprocess</td><td style="vertical-align:top;">:</td><td><div>False</div></td></tr><tr><td style="font-weight:bold;vertical-align:top;">wsgi.multithread</td><td style="vertical-align:top;">:</td><td><div>True</div></td></tr><tr><td style="font-weight:bold;vertical-align:top;">wsgi.run_once</td><td style="vertical-align:top;">:</td><td><div>False</div></td></tr><tr><td style="font-weight:bold;vertical-align:top;">wsgi.url_scheme</td><td style="vertical-align:top;">:</td><td><div>http</div></td></tr><tr><td style="font-weight:bold;vertical-align:top;">wsgi.version</td><td style="vertical-align:top;">:</td><td><div><table><tr><td><div>1</div></td></tr><tr><td><div>0</div></td></tr></table></div></td></tr><tr><td style="font-weight:bold;vertical-align:top;">wsgi_errors</td><td style="vertical-align:top;">:</td><td><div>&lt;open file &#x27;&lt;stderr&gt;&#x27;, mode &#x27;w&#x27; at 0x108f5e1e0&gt;</div></td></tr><tr><td style="font-weight:bold;vertical-align:top;">wsgi_file_wrapper</td><td style="vertical-align:top;">:</td><td><div>&lt;class wsgiref.util.FileWrapper at 0x10a75dd50&gt;</div></td></tr><tr><td style="font-weight:bold;vertical-align:top;">wsgi_input</td><td style="vertical-align:top;">:</td><td><div>&lt;socket._fileobject object at 0x1111cf7d0&gt;</div></td></tr><tr><td style="font-weight:bold;vertical-align:top;">wsgi_multiprocess</td><td style="vertical-align:top;">:</td><td><div>False</div></td></tr><tr><td style="font-weight:bold;vertical-align:top;">wsgi_multithread</td><td style="vertical-align:top;">:</td><td><div>True</div></td></tr><tr><td style="font-weight:bold;vertical-align:top;">wsgi_run_once</td><td style="vertical-align:top;">:</td><td><div>False</div></td></tr><tr><td style="font-weight:bold;vertical-align:top;">wsgi_url_scheme</td><td style="vertical-align:top;">:</td><td><div>http</div></td></tr><tr><td style="font-weight:bold;vertical-align:top;">wsgi_version</td><td style="vertical-align:top;">:</td><td><div><table><tr><td><div>1</div></td></tr><tr><td><div>0</div></td></tr></table></div></td></tr></table></div></td></tr><tr><td style="font-weight:bold;vertical-align:top;">extension</td><td style="vertical-align:top;">:</td><td><div>html</div></td></tr><tr><td style="font-weight:bold;vertical-align:top;">folder</td><td style="vertical-align:top;">:</td><td><div>/Users/brandon/Documents/UCSC/CMPS183/web2py/applications/bykr/</div></td></tr><tr><td style="font-weight:bold;vertical-align:top;">function</td><td style="vertical-align:top;">:</td><td><div>user</div></td></tr><tr><td style="font-weight:bold;vertical-align:top;">global_settings</td><td style="vertical-align:top;">:</td><td><div><table><tr><td style="font-weight:bold;vertical-align:top;">app_folders</td><td style="vertical-align:top;">:</td><td><div>set([&#x27;/Users/brandon/Documents/UCSC/CMPS183/web2py/applications/welcome/&#x27;, &#x27;/Users/brandon/Documents/UCSC/CMPS183/web2py/applications/bykr/&#x27;])</div></td></tr><tr><td style="font-weight:bold;vertical-align:top;">applications_parent</td><td style="vertical-align:top;">:</td><td><div>/Users/brandon/Documents/UCSC/CMPS183/web2py</div></td></tr><tr><td style="font-weight:bold;vertical-align:top;">cmd_args</td><td style="vertical-align:top;">:</td><td><div><table></table></div></td></tr><tr><td style="font-weight:bold;vertical-align:top;">cmd_options</td><td style="vertical-align:top;">:</td><td><div>&lt;Values at 0x10a7b7170: {&#x27;verbose&#x27;: False, &#x27;ip&#x27;: &#x27;127.0.0.1&#x27;, &#x27;debuglevel&#x27;: 30, &#x27;with_scheduler&#x27;: False, &#x27;shutdown_timeout&#x27;: 5, &#x27;taskbar&#x27;: False, &#x27;with_coverage&#x27;: False, &#x27;pid_filename&#x27;: &#x27;httpserver.pid&#x27;, &#x27;maxthreads&#x27;: None, &#x27;softcron&#x27;: False, &#x27;server_name&#x27;: &#x27;Brandons-MBP-3&#x27;, &#x27;bpython&#x27;: False, &#x27;nogui&#x27;: False, &#x27;port&#x27;: 8000, &#x27;print_errors&#x27;: False, &#x27;extcron&#x27;: False, &#x27;runcron&#x27;: False, &#x27;run_system_tests&#x27;: False, &#x27;test&#x27;: None, &#x27;folder&#x27;: &#x27;/Users/brandon/Documents/UCSC/CMPS183/web2py&#x27;, &#x27;config&#x27;: &#x27;&#x27;, &#x27;minthreads&#x27;: None, &#x27;shell&#x27;: None, &#x27;run&#x27;: &#x27;&#x27;, &#x27;log_filename&#x27;: &#x27;httpserver.log&#x27;, &#x27;profiler_dir&#x27;: None, &#x27;args&#x27;: [&#x27;&#x27;], &#x27;socket_timeout&#x27;: 5, &#x27;ssl_ca_certificate&#x27;: None, &#x27;scheduler&#x27;: None, &#x27;interfaces&#x27;: None, &#x27;ssl_private_key&#x27;: &#x27;&#x27;, &#x27;gae&#x27;: None, &#x27;password&#x27;: &#x27;******&#x27;, &#x27;request_queue_size&#x27;: 5, &#x27;ssl_certificate&#x27;: &#x27;&#x27;, &#x27;cronjob&#x27;: False, &#x27;numthreads&#x27;: None, &#x27;quiet&#x27;: False, &#x27;import_models&#x27;: False, &#x27;timeout&#x27;: 10, &#x27;plain&#x27;: False, &#x27;nobanner&#x27;: False}&gt;</div></td></tr><tr><td style="font-weight:bold;vertical-align:top;">db_sessions</td><td style="vertical-align:top;">:</td><td><div>set([])</div></td></tr><tr><td style="font-weight:bold;vertical-align:top;">debugging</td><td style="vertical-align:top;">:</td><td><div>False</div></td></tr><tr><td style="font-weight:bold;vertical-align:top;">gluon_parent</td><td style="vertical-align:top;">:</td><td><div>/Users/brandon/Documents/UCSC/CMPS183/web2py</div></td></tr><tr><td style="font-weight:bold;vertical-align:top;">is_jython</td><td style="vertical-align:top;">:</td><td><div>False</div></td></tr><tr><td style="font-weight:bold;vertical-align:top;">is_py2</td><td style="vertical-align:top;">:</td><td><div>True</div></td></tr><tr><td style="font-weight:bold;vertical-align:top;">is_pypy</td><td style="vertical-align:top;">:</td><td><div>False</div></td></tr><tr><td style="font-weight:bold;vertical-align:top;">is_source</td><td style="vertical-align:top;">:</td><td><div>True</div></td></tr><tr><td style="font-weight:bold;vertical-align:top;">local_hosts</td><td style="vertical-align:top;">:</td><td><div><table><tr><td><div>Brandons-MBP-3</div></td></tr><tr><td><div>::ffff:127.0.0.1</div></td></tr><tr><td><div>::1</div></td></tr><tr><td><div>154.1.168.192.in-addr.arpa</div></td></tr><tr><td><div>127.0.0.1</div></td></tr><tr><td><div>192.168.1.154</div></td></tr></table></div></td></tr><tr><td style="font-weight:bold;vertical-align:top;">web2py_version</td><td style="vertical-align:top;">:</td><td><div>2.17.2-stable+timestamp.2018.10.06.18.54.02</div></td></tr></table></div></td></tr><tr><td style="font-weight:bold;vertical-align:top;">is_https</td><td style="vertical-align:top;">:</td><td><div>False</div></td></tr><tr><td style="font-weight:bold;vertical-align:top;">is_local</td><td style="vertical-align:top;">:</td><td><div>True</div></td></tr><tr><td style="font-weight:bold;vertical-align:top;">is_restful</td><td style="vertical-align:top;">:</td><td><div>False</div></td></tr><tr><td style="font-weight:bold;vertical-align:top;">is_scheduler</td><td style="vertical-align:top;">:</td><td><div>False</div></td></tr><tr><td style="font-weight:bold;vertical-align:top;">is_shell</td><td style="vertical-align:top;">:</td><td><div>False</div></td></tr><tr><td style="font-weight:bold;vertical-align:top;">method</td><td style="vertical-align:top;">:</td><td><div>GET</div></td></tr><tr><td style="font-weight:bold;vertical-align:top;">now</td><td style="vertical-align:top;">:</td><td><div>datetime.datetime(2018, 12, 3, 0, 53, 25, 147371)</div></td></tr><tr><td style="font-weight:bold;vertical-align:top;">raw_args</td><td style="vertical-align:top;">:</td><td><div>profile</div></td></tr><tr><td style="font-weight:bold;vertical-align:top;">raw_extension</td><td style="vertical-align:top;">:</td><td><div>None</div></td></tr><tr><td style="font-weight:bold;vertical-align:top;">url</td><td style="vertical-align:top;">:</td><td><div>/bykr/default/user/profile</div></td></tr><tr><td style="font-weight:bold;vertical-align:top;">utcnow</td><td style="vertical-align:top;">:</td><td><div>datetime.datetime(2018, 12, 3, 8, 53, 25, 147382)</div></td></tr><tr><td style="font-weight:bold;vertical-align:top;">wsgi</td><td style="vertical-align:top;">:</td><td><div>&lt;gluon.main.LazyWSGI object at 0x1111e5c50&gt;</div></td></tr></table></div>'
tRp64
sS'frames'
p65
(lp66
(dp67
S'file'
p68
S'/Users/brandon/Documents/UCSC/CMPS183/web2py/gluon/restricted.py'
p69
sS'dump'
p70
(dp71
S'environment'
p72
S"{'A': <class 'gluon.html.A'>, 'ANY_OF': <class 'gluon.validators.ANY_OF'>, 'ASSIGNJS': <function ASSIGNJS>, 'AppConfig': <function AppConfig>, 'Auth': <class 'gluon.tools.Auth'>, 'B': <class 'gluon.html.B'>, 'BEAUTIFY': <class 'gluon.html.BEAUTIFY'>, 'BODY': <class 'gluon.html.BODY'>, 'BR': <class 'gluon.html.BR'>, 'BUTTON': <class 'gluon.html.BUTTON'>, ...}"
p73
sS'ccode'
p74
S'<code object <module> at 0x1112fe4b0, file "/Use...pplications/bykr/controllers/default.py", line 8>'
p75
ssS'lnum'
p76
I219
sS'lines'
p77
(dp78
I214
S'    if environment is None:'
p79
sI215
S'        environment = {}'
p80
sI216
S"    environment['__file__'] = layer"
p81
sI217
S"    environment['__name__'] = '__restricted__'"
p82
sI218
S'    try:'
p83
sI219
S'        exec(ccode, environment)'
p84
sI220
S'    except HTTP:'
p85
sI221
S'        raise'
p86
sI222
S'    except RestrictedError:'
p87
sI223
S'        # do not encapsulate (obfuscate) the original RestrictedError'
p88
ssS'call'
p89
S'(ccode=<code object <module> at 0x1112fe4b0, file "/Use...pplications/bykr/controllers/default.py", line 8>, environment={\'A\': <class \'gluon.html.A\'>, \'ANY_OF\': <class \'gluon.validators.ANY_OF\'>, \'ASSIGNJS\': <function ASSIGNJS>, \'AppConfig\': <function AppConfig>, \'Auth\': <class \'gluon.tools.Auth\'>, \'B\': <class \'gluon.html.B\'>, \'BEAUTIFY\': <class \'gluon.html.BEAUTIFY\'>, \'BODY\': <class \'gluon.html.BODY\'>, \'BR\': <class \'gluon.html.BR\'>, \'BUTTON\': <class \'gluon.html.BUTTON\'>, ...}, layer=\'/Users/brandon/Documents/UCSC/CMPS183/web2py/applications/bykr/controllers/default.py\', scode=<code object <module> at 0x1112fe4b0, file "/Use...pplications/bykr/controllers/default.py", line 8>)'
p90
sS'func'
p91
S'restricted'
p92
sa(dp93
g68
S'/Users/brandon/Documents/UCSC/CMPS183/web2py/applications/bykr/controllers/default.py'
p94
sg70
(dp95
sg76
I74
sg77
(dp96
I64
S''
sI65
S'# ---- action to server uploaded static content (required) ---'
p97
sI66
S'@cache.action()'
p98
sI67
S'def download():'
p99
sI68
S'    """'
p100
sI69
S'    allows downloading of uploaded files'
p101
sI70
S'    http://..../[app]/default/download/[filename]'
p102
sI71
S'    """'
p103
sI72
S'    return response.download(request, db)'
p104
sI63
S'    return dict(form=auth())'
p105
ssg89
S'()'
p106
sg91
S'<module>'
p107
sa(dp108
g68
S'/Users/brandon/Documents/UCSC/CMPS183/web2py/gluon/globals.py'
p109
sg70
(dp110
S'self'
p111
S'undefined'
p112
sS'f'
S'<function user>'
p113
ssg76
I421
sg77
(dp114
I416
S"        self.flash = ''            # used by the default view layout"
p115
sI417
S'        self.meta = Storage()      # used by web2py_ajax.html'
p116
sI418
S'        self.menu = []             # used by the default view layout'
p117
sI419
S'        self.files = []            # used by web2py_ajax.html'
p118
sI420
S'        self._vars = None'
p119
sI421
S'        self._caller = lambda f: f()'
p120
sI422
S'        self._view_environment = None'
p121
sI423
S'        self._custom_commit = None'
p122
sI424
S'        self._custom_rollback = None'
p123
sI425
S"        self.generic_patterns = ['*']"
p124
ssg89
S'(f=<function user>)'
p125
sg91
S'<lambda>'
p126
sa(dp127
g68
S'/Users/brandon/Documents/UCSC/CMPS183/web2py/applications/bykr/controllers/default.py'
p128
sg70
(dp129
S'global auth'
p130
S'<gluon.tools.Auth object>'
p131
sS'form'
p132
g112
sS'builtindict'
p133
S"<type 'dict'>"
p134
ssg76
I63
sg77
(dp135
I64
S''
sI65
S'# ---- action to server uploaded static content (required) ---'
p136
sI66
S'@cache.action()'
p137
sI67
S'def download():'
p138
sI58
S"        @auth.requires_membership('group name')"
p139
sI59
S"        @auth.requires_permission('read','table name',record_id)"
p140
sI60
S'    to decorate functions that need access control'
p141
sI61
S'    also notice there is http://..../[app]/appadmin/manage/auth to allow administrator to manage users'
p142
sI62
S'    """'
p143
sI63
S'    return dict(form=auth())'
p144
ssg89
S'()'
p145
sg91
S'user'
p146
sa(dp147
g68
S'/Users/brandon/Documents/UCSC/CMPS183/web2py/gluon/tools.py'
p148
sg70
(dp149
S'self'
p150
S'<gluon.tools.Auth object>'
p151
sS'args'
p152
S"['profile']"
p153
sS'builtingetattr'
p154
S'<built-in function getattr>'
p155
ssg76
I1800
sg77
(dp156
I1795
S"                       'impersonate', 'not_authorized', 'confirm_registration',"
p157
sI1796
S"                       'bulk_register', 'manage_tokens', 'jwt'):"
p158
sI1797
S"            if len(request.args) >= 2 and args[0] == 'impersonate':"
p159
sI1798
S'                return getattr(self, args[0])(request.args[1])'
p160
sI1799
S'            else:'
p161
sI1800
S'                return getattr(self, args[0])()'
p162
sI1801
S"        elif args[0] == 'cas' and not self.settings.cas_provider:"
p163
sI1802
S"            if args(1) == self.settings.cas_actions['login']:"
p164
sI1803
S'                return self.cas_login(version=2)'
p165
sI1804
S"            elif args(1) == self.settings.cas_actions['validate']:"
p166
ssg89
S'(self=<gluon.tools.Auth object>)'
p167
sg91
S'__call__'
p168
sa(dp169
g68
S'/Users/brandon/Documents/UCSC/CMPS183/web2py/gluon/tools.py'
p170
sg70
(dp171
S'self.settings.allow_delete_accounts'
p172
S'False'
p173
sS'self'
p174
S'<gluon.tools.Auth object>'
p175
sS'deletable'
p176
g112
sS'self.settings'
p177
S"<Storage {'verify_email_onaccept': [], 'allow_ba...'retrieve_username_next': '/bykr/default/index'}>"
p178
ssg76
I3656
sg77
(dp179
I3651
S'            submit_button=self.messages.profile_save_button,'
p180
sI3652
S'            delete_label=self.messages.delete_label,'
p181
sI3653
S'            upload=self.settings.download_url,'
p182
sI3654
S'            formstyle=self.settings.formstyle,'
p183
sI3655
S'            separator=self.settings.label_separator,'
p184
sI3656
S'            deletable=self.settings.allow_delete_accounts,'
p185
sI3657
S'        )'
p186
sI3658
S'        if form.accepts(request, session,'
p187
sI3659
S"                        formname='profile',"
p188
sI3660
S'                        onvalidation=onvalidation,'
p189
ssg89
S"(self=<gluon.tools.Auth object>, next='/bykr/default/index', onvalidation=[], onaccept=[], log='User %(id)s Profile updated')"
p190
sg91
S'profile'
p191
sa(dp192
g68
S'/Users/brandon/Documents/UCSC/CMPS183/web2py/gluon/sqlhtml.py'
p193
sg70
(dp194
S'record'
p195
S'3L'
p196
sS'table._id'
p197
S'<pydal.objects.Field object>'
p198
sS').select'
p199
g112
sS'table._db'
p200
S'<DAL uri="sqlite://storage.sqlite">'
p201
sS'table'
p202
S'<Table auth_user (id, first_name, last_name, ema...ration_key, reset_password_key, registration_id)>'
p203
ssg76
I1375
sg77
(dp204
I1376
S'            if not record:'
p205
sI1377
S'                raise HTTP(404, "Object not found")'
p206
sI1378
S'        self.record = record'
p207
sI1379
S''
sI1370
S'        # try to retrieve the indicated record using its id'
p208
sI1371
S'        # otherwise ignore it'
p209
sI1372
S'        if record and isinstance(record, (int, long, str, unicodeT)):'
p210
sI1373
S'            if not str(record).isdigit():'
p211
sI1374
S'                raise HTTP(404, "Object not found")'
p212
sI1375
S'            record = table._db(table._id == record).select().first()'
p213
ssg89
S"(self=<gluon.sqlhtml.SQLFORM object>, table=<Table auth_user (id, first_name, last_name, ema...ration_key, reset_password_key, registration_id)>, record=3L, deletable=False, linkto=None, upload='/bykr/default/download', fields=['id', 'first_name', 'last_name', 'email'], labels=None, col3={}, submit_button=<lazyT 'Apply changes'>, delete_label=<lazyT 'Check to delete'>, showid=False, readonly=False, comments=True, keepopts=[], ignore_rw=False, record_id=None, formstyle='bootstrap4_inline', buttons=['submit'], separator='', extra_fields=None, **attributes={'hidden': {'_next': '/bykr/default/index'}})"
p214
sg91
g28
sa(dp215
g68
S'/Users/brandon/Documents/UCSC/CMPS183/web2py/gluon/packages/dal/pydal/objects.py'
p216
sg70
(dp217
S'self.query'
p218
S'<Query ("auth_user"."id" = 3)>'
p219
sS'adapter.select'
p220
S'<bound method SQLite.select of <pydal.adapters.sqlite.SQLite object>>'
p221
sS'fields'
p222
S'[<pydal.objects.Field object>, <pydal.objects.Field object>, <pydal.objects.Field object>, <pydal.objects.Field object>, <pydal.objects.Field object>, <pydal.objects.Field object>, <pydal.objects.Field object>, <pydal.objects.Field object>]'
p223
sS'adapter'
p224
S'<pydal.adapters.sqlite.SQLite object>'
p225
sS'attributes'
p226
g21
sS'self'
p227
S'<Set ("auth_user"."id" = 3)>'
p228
ssg76
I2275
sg77
(dp229
I2272
S"                                    attributes.get('orderby', None),"
p230
sI2273
S"                                    attributes.get('groupby', None))"
p231
sI2274
S'        fields = adapter.expand_all(fields, tablenames)'
p232
sI2275
S'        return adapter.select(self.query, fields, attributes)'
p233
sI2276
S''
sI2277
S'    def iterselect(self, *fields, **attributes):'
p234
sI2278
S'        adapter = self.db._adapter'
p235
sI2279
S'        tablenames = adapter.tables(self.query,'
p236
sI2270
S"                                    attributes.get('join', None),"
p237
sI2271
S"                                    attributes.get('left', None),"
p238
ssg89
S'(self=<Set ("auth_user"."id" = 3)>, *fields=[<pydal.objects.Field object>, <pydal.objects.Field object>, <pydal.objects.Field object>, <pydal.objects.Field object>, <pydal.objects.Field object>, <pydal.objects.Field object>, <pydal.objects.Field object>, <pydal.objects.Field object>], **attributes={})'
p239
sg91
S'select'
p240
sa(dp241
g68
S'/Users/brandon/Documents/UCSC/CMPS183/web2py/gluon/packages/dal/pydal/adapters/sqlite.py'
p242
sg70
(dp243
S'fields'
p244
S'[<pydal.objects.Field object>, <pydal.objects.Field object>, <pydal.objects.Field object>, <pydal.objects.Field object>, <pydal.objects.Field object>, <pydal.objects.Field object>, <pydal.objects.Field object>, <pydal.objects.Field object>]'
p245
sS'self'
p246
S'<pydal.adapters.sqlite.SQLite object>'
p247
sS').select'
p248
S'<bound method SQLite.select of <pydal.adapters.sqlite.SQLite object>>'
p249
sS'attributes'
p250
g21
sS'query'
p251
S'<Query ("auth_user"."id" = 3)>'
p252
sS'builtinsuper'
p253
S"<type 'super'>"
p254
sS'global SQLite'
p255
S"<class 'pydal.adapters.sqlite.SQLite'>"
p256
ssg76
I82
sg77
(dp257
I77
S"            self.execute('PRAGMA foreign_keys=ON;')"
p258
sI78
S''
sI79
S'    def select(self, query, fields, attributes):'
p259
sI80
S"        if attributes.get('for_update', False) and 'cache' not in attributes:"
p260
sI81
S"            self.execute('BEGIN IMMEDIATE TRANSACTION;')"
p261
sI82
S'        return super(SQLite, self).select(query, fields, attributes)'
p262
sI83
S''
sI84
S'    def delete(self, table, query):'
p263
sI85
S'        db = self.db'
p264
sI86
S'        deleted = [x[table._id.name] for x in db(query).select(table._id)]'
p265
ssg89
S'(self=<pydal.adapters.sqlite.SQLite object>, query=<Query ("auth_user"."id" = 3)>, fields=[<pydal.objects.Field object>, <pydal.objects.Field object>, <pydal.objects.Field object>, <pydal.objects.Field object>, <pydal.objects.Field object>, <pydal.objects.Field object>, <pydal.objects.Field object>, <pydal.objects.Field object>], attributes={})'
p266
sg91
g240
sa(dp267
g68
S'/Users/brandon/Documents/UCSC/CMPS183/web2py/gluon/packages/dal/pydal/adapters/base.py'
p268
sg70
(dp269
S'self._select_aux'
p270
S'<bound method SQLite._select_aux of <pydal.adapters.sqlite.SQLite object>>'
p271
sS'fields'
p272
S'[<pydal.objects.Field object>, <pydal.objects.Field object>, <pydal.objects.Field object>, <pydal.objects.Field object>, <pydal.objects.Field object>, <pydal.objects.Field object>, <pydal.objects.Field object>, <pydal.objects.Field object>]'
p273
sS'self'
p274
S'<pydal.adapters.sqlite.SQLite object>'
p275
sS'sql'
p276
S'\'SELECT "auth_user"."id", "auth_user"."first_name...d" FROM "auth_user" WHERE ("auth_user"."id" = 3);\''
p277
sS'attributes'
p278
g21
sS'colnames'
p279
S"['auth_user.id', 'auth_user.first_name', 'auth_user.last_name', 'auth_user.email', 'auth_user.password', 'auth_user.registration_key', 'auth_user.reset_password_key', 'auth_user.registration_id']"
p280
ssg76
I763
sg77
(dp281
I758
S'        colnames, sql = self._select_wcols(query, fields, **attributes)'
p282
sI759
S"        cache = attributes.get('cache', None)"
p283
sI760
S"        if cache and attributes.get('cacheable', False):"
p284
sI761
S'            return self._cached_select('
p285
sI762
S'                cache, sql, fields, attributes, colnames)'
p286
sI763
S'        return self._select_aux(sql, fields, attributes, colnames)'
p287
sI764
S''
sI765
S'    def iterselect(self, query, fields, attributes):'
p288
sI766
S'        colnames, sql = self._select_wcols(query, fields, **attributes)'
p289
sI767
S"        cacheable = attributes.get('cacheable', False)"
p290
ssg89
S'(self=<pydal.adapters.sqlite.SQLite object>, query=<Query ("auth_user"."id" = 3)>, fields=[<pydal.objects.Field object>, <pydal.objects.Field object>, <pydal.objects.Field object>, <pydal.objects.Field object>, <pydal.objects.Field object>, <pydal.objects.Field object>, <pydal.objects.Field object>, <pydal.objects.Field object>], attributes={})'
p291
sg91
g240
sa(dp292
g68
S'/Users/brandon/Documents/UCSC/CMPS183/web2py/gluon/packages/dal/pydal/adapters/base.py'
p293
sg70
(dp294
S'self'
p295
S'<pydal.adapters.sqlite.SQLite object>'
p296
sS'rows'
p297
g112
sS'self._select_aux_execute'
p298
S'<bound method SQLite._select_aux_execute of <pydal.adapters.sqlite.SQLite object>>'
p299
sS'sql'
p300
S'\'SELECT "auth_user"."id", "auth_user"."first_name...d" FROM "auth_user" WHERE ("auth_user"."id" = 3);\''
p301
ssg76
I719
sg77
(dp302
I714
S'        return self.cursor.fetchall()'
p303
sI715
S''
sI716
S'    def _select_aux(self, sql, fields, attributes, colnames):'
p304
sI717
S"        cache = attributes.get('cache', None)"
p305
sI718
S'        if not cache:'
p306
sI719
S'            rows = self._select_aux_execute(sql)'
p307
sI720
S'        else:'
p308
sI721
S'            if isinstance(cache, dict):'
p309
sI722
S"                cache_model = cache['model']"
p310
sI723
S"                time_expire = cache['expiration']"
p311
ssg89
S'(self=<pydal.adapters.sqlite.SQLite object>, sql=\'SELECT "auth_user"."id", "auth_user"."first_name...d" FROM "auth_user" WHERE ("auth_user"."id" = 3);\', fields=[<pydal.objects.Field object>, <pydal.objects.Field object>, <pydal.objects.Field object>, <pydal.objects.Field object>, <pydal.objects.Field object>, <pydal.objects.Field object>, <pydal.objects.Field object>, <pydal.objects.Field object>], attributes={}, colnames=[\'auth_user.id\', \'auth_user.first_name\', \'auth_user.last_name\', \'auth_user.email\', \'auth_user.password\', \'auth_user.registration_key\', \'auth_user.reset_password_key\', \'auth_user.registration_id\'])'
p312
sg91
S'_select_aux'
p313
sa(dp314
g68
S'/Users/brandon/Documents/UCSC/CMPS183/web2py/gluon/packages/dal/pydal/adapters/base.py'
p315
sg70
(dp316
S'self'
p317
S'<pydal.adapters.sqlite.SQLite object>'
p318
sS'self.execute'
p319
S'<bound method SQLite.wrap of <pydal.adapters.sqlite.SQLite object>>'
p320
sS'sql'
p321
S'\'SELECT "auth_user"."id", "auth_user"."first_name...d" FROM "auth_user" WHERE ("auth_user"."id" = 3);\''
p322
ssg76
I713
sg77
(dp323
I708
S''
sI709
S'    def nested_select(self, query, fields, attributes):'
p324
sI710
S'        return Select(self.db, query, fields, attributes)'
p325
sI711
S''
sI712
S'    def _select_aux_execute(self, sql):'
p326
sI713
S'        self.execute(sql)'
p327
sI714
S'        return self.cursor.fetchall()'
p328
sI715
S''
sI716
S'    def _select_aux(self, sql, fields, attributes, colnames):'
p329
sI717
S"        cache = attributes.get('cache', None)"
p330
ssg89
S'(self=<pydal.adapters.sqlite.SQLite object>, sql=\'SELECT "auth_user"."id", "auth_user"."first_name...d" FROM "auth_user" WHERE ("auth_user"."id" = 3);\')'
p331
sg91
S'_select_aux_execute'
p332
sa(dp333
g68
S'/Users/brandon/Documents/UCSC/CMPS183/web2py/gluon/packages/dal/pydal/adapters/__init__.py'
p334
sg70
(dp335
S'kwargs'
p336
g21
sS'args'
p337
S'(<pydal.adapters.sqlite.SQLite object>, \'SELECT "auth_user"."id", "auth_user"."first_name...d" FROM "auth_user" WHERE ("auth_user"."id" = 3);\')'
p338
sS'f'
S'<function execute>'
p339
ssg76
I67
sg77
(dp340
I64
S'            if len(args) > 1:'
p341
sI65
S'                raise ValueError(args[1])'
p342
sI66
S"            raise RuntimeError('no connection available')"
p343
sI67
S'        return f(*args, **kwargs)'
p344
sI68
S'    return wrap'
p345
sI69
S''
sI70
S''
sI71
S'from .base import SQLAdapter, NoSQLAdapter'
p346
sI62
S'    def wrap(*args, **kwargs):'
p347
sI63
S'        if not args[0].connection:'
p348
ssg89
S'(*args=(<pydal.adapters.sqlite.SQLite object>, \'SELECT "auth_user"."id", "auth_user"."first_name...d" FROM "auth_user" WHERE ("auth_user"."id" = 3);\'), **kwargs={})'
p349
sg91
S'wrap'
p350
sa(dp351
g68
S'/Users/brandon/Documents/UCSC/CMPS183/web2py/gluon/packages/dal/pydal/adapters/base.py'
p352
sg70
(dp353
S'rv'
p354
g112
sS'self'
p355
S'<pydal.adapters.sqlite.SQLite object>'
p356
sS'args'
p357
S'(\'SELECT "auth_user"."id", "auth_user"."first_name...d" FROM "auth_user" WHERE ("auth_user"."id" = 3);\',)'
p358
sS'self.cursor'
p359
S'<sqlite3.Cursor object>'
p360
sS'command'
p361
S'\'SELECT "auth_user"."id", "auth_user"."first_name...d" FROM "auth_user" WHERE ("auth_user"."id" = 3);\''
p362
sS'self.cursor.execute'
p363
S'<built-in method execute of sqlite3.Cursor object>'
p364
sS'kwargs'
p365
g21
ssg76
I413
sg77
(dp366
I416
S'        return rv'
p367
sI417
S''
sI408
S'    def execute(self, *args, **kwargs):'
p368
sI409
S'        command = self.filter_sql_command(args[0])'
p369
sI410
S'        handlers = self._build_handlers_for_execution()'
p370
sI411
S'        for handler in handlers:'
p371
sI412
S'            handler.before_execute(command)'
p372
sI413
S'        rv = self.cursor.execute(command, *args[1:], **kwargs)'
p373
sI414
S'        for handler in handlers:'
p374
sI415
S'            handler.after_execute(command)'
p375
ssg89
S'(self=<pydal.adapters.sqlite.SQLite object>, *args=(\'SELECT "auth_user"."id", "auth_user"."first_name...d" FROM "auth_user" WHERE ("auth_user"."id" = 3);\',), **kwargs={})'
p376
sg91
S'execute'
p377
sasS'pyver'
p378
S'Python 2.7.15: /Users/brandon/anaconda3/bin/python (prefix: /Users/brandon/anaconda3)'
p379
sS'session'
p380
g63
(S'sh\t\x00\x00<div><table><tr><td style="font-weight:bold;vertical-align:top;">auth</td><td style="vertical-align:top;">:</td><td><div><table><tr><td style="font-weight:bold;vertical-align:top;">expiration</td><td style="vertical-align:top;">:</td><td><div>2592000</div></td></tr><tr><td style="font-weight:bold;vertical-align:top;">hmac_key</td><td style="vertical-align:top;">:</td><td><div>4d53b327-72bd-4e93-98e5-4636e587c568</div></td></tr><tr><td style="font-weight:bold;vertical-align:top;">last_visit</td><td style="vertical-align:top;">:</td><td><div>datetime.datetime(2018, 12, 2, 22, 9, 45, 126520)</div></td></tr><tr><td style="font-weight:bold;vertical-align:top;">remember_me</td><td style="vertical-align:top;">:</td><td><div>True</div></td></tr><tr><td style="font-weight:bold;vertical-align:top;">user</td><td style="vertical-align:top;">:</td><td><div><table><tr><td style="font-weight:bold;vertical-align:top;">email</td><td style="vertical-align:top;">:</td><td><div>nnbrandon@att.net</div></td></tr><tr><td style="font-weight:bold;vertical-align:top;">first_name</td><td style="vertical-align:top;">:</td><td><div>Brandon</div></td></tr><tr><td style="font-weight:bold;vertical-align:top;">id</td><td style="vertical-align:top;">:</td><td><div>3L</div></td></tr><tr><td style="font-weight:bold;vertical-align:top;">last_name</td><td style="vertical-align:top;">:</td><td><div>Nguyen</div></td></tr><tr><td style="font-weight:bold;vertical-align:top;">registration_id</td><td style="vertical-align:top;">:</td><td><div></div></td></tr><tr><td style="font-weight:bold;vertical-align:top;">registration_key</td><td style="vertical-align:top;">:</td><td><div></div></td></tr><tr><td style="font-weight:bold;vertical-align:top;">reset_password_key</td><td style="vertical-align:top;">:</td><td><div></div></td></tr></table></div></td></tr><tr><td style="font-weight:bold;vertical-align:top;">user_groups</td><td style="vertical-align:top;">:</td><td><div><table><tr><td style="font-weight:bold;vertical-align:top;">3</td><td style="vertical-align:top;">:</td><td><div>user_3</div></td></tr></table></div></td></tr></table></div></td></tr><tr><td style="font-weight:bold;vertical-align:top;">flash</td><td style="vertical-align:top;">:</td><td><div>None</div></td></tr><tr><td style="font-weight:bold;vertical-align:top;">id</td><td style="vertical-align:top;">:</td><td><div>5</div></td></tr></table></div>'
tRp381
sS'etype'
p382
S"<class 'sqlite3.DatabaseError'>"
p383
sS'date'
p384
S'Mon Dec  3 00:53:25 2018'
p385
sS'response'
p386
g63
(S's\xf4=\x00\x00<div><table><tr><td style="font-weight:bold;vertical-align:top;">body</td><td style="vertical-align:top;">:</td><td><div>&lt;cStringIO.StringO object at 0x1111ce4c8&gt;</div></td></tr><tr><td style="font-weight:bold;vertical-align:top;">cookies</td><td style="vertical-align:top;">:</td><td><div><table><tr><td style="font-weight:bold;vertical-align:top;">session_id_bykr</td><td style="vertical-align:top;">:</td><td><div>127.0.0.1-8049ec63-9b87-4710-a34c-5addda91bf0b<table><tr><td style="font-weight:bold;vertical-align:top;">comment</td><td style="vertical-align:top;">:</td><td><div></div></td></tr><tr><td style="font-weight:bold;vertical-align:top;">domain</td><td style="vertical-align:top;">:</td><td><div></div></td></tr><tr><td style="font-weight:bold;vertical-align:top;">expires</td><td style="vertical-align:top;">:</td><td><div></div></td></tr><tr><td style="font-weight:bold;vertical-align:top;">httponly</td><td style="vertical-align:top;">:</td><td><div></div></td></tr><tr><td style="font-weight:bold;vertical-align:top;">max-age</td><td style="vertical-align:top;">:</td><td><div></div></td></tr><tr><td style="font-weight:bold;vertical-align:top;">path</td><td style="vertical-align:top;">:</td><td><div>/</div></td></tr><tr><td style="font-weight:bold;vertical-align:top;">samesite</td><td style="vertical-align:top;">:</td><td><div></div></td></tr><tr><td style="font-weight:bold;vertical-align:top;">secure</td><td style="vertical-align:top;">:</td><td><div></div></td></tr><tr><td style="font-weight:bold;vertical-align:top;">version</td><td style="vertical-align:top;">:</td><td><div></div></td></tr></table></div></td></tr></table></div></td></tr><tr><td style="font-weight:bold;vertical-align:top;">delimiters</td><td style="vertical-align:top;">:</td><td><div><table><tr><td><div>{{</div></td></tr><tr><td><div>}}</div></td></tr></table></div></td></tr><tr><td style="font-weight:bold;vertical-align:top;">files</td><td style="vertical-align:top;">:</td><td><div><table></table></div></td></tr><tr><td style="font-weight:bold;vertical-align:top;">flash</td><td style="vertical-align:top;">:</td><td><div></div></td></tr><tr><td style="font-weight:bold;vertical-align:top;">form_label_separator</td><td style="vertical-align:top;">:</td><td><div></div></td></tr><tr><td style="font-weight:bold;vertical-align:top;">formstyle</td><td style="vertical-align:top;">:</td><td><div>bootstrap4_inline</div></td></tr><tr><td style="font-weight:bold;vertical-align:top;">generic_patterns</td><td style="vertical-align:top;">:</td><td><div><table><tr><td><div>*</div></td></tr></table></div></td></tr><tr><td style="font-weight:bold;vertical-align:top;">google_analytics_id</td><td style="vertical-align:top;">:</td><td><div>None</div></td></tr><tr><td style="font-weight:bold;vertical-align:top;">headers</td><td style="vertical-align:top;">:</td><td><div><table><tr><td style="font-weight:bold;vertical-align:top;">X-Powered-By</td><td style="vertical-align:top;">:</td><td><div>web2py</div></td></tr></table></div></td></tr><tr><td style="font-weight:bold;vertical-align:top;">menu</td><td style="vertical-align:top;">:</td><td><div><table><tr><td><div><table><tr><td><div>Home</div></td></tr><tr><td><div>False</div></td></tr><tr><td><div>/bykr/default/index</div></td></tr><tr><td><div><table></table></div></td></tr></table></div></td></tr><tr><td><div><table><tr><td><div>My Sites</div></td></tr><tr><td><div>False</div></td></tr><tr><td><div>/admin/default/site</div></td></tr></table></div></td></tr><tr><td><div><table><tr><td><div>This App</div></td></tr><tr><td><div>False</div></td></tr><tr><td><div>#</div></td></tr><tr><td><div><table><tr><td><div><table><tr><td><div>Design</div></td></tr><tr><td><div>False</div></td></tr><tr><td><div>/admin/default/design/bykr</div></td></tr></table></div></td></tr><tr><td><div><table><tr><td><div>Controller</div></td></tr><tr><td><div>False</div></td></tr><tr><td><div>/admin/default/edit/bykr/controllers/default.py</div></td></tr></table></div></td></tr><tr><td><div><table><tr><td><div>View</div></td></tr><tr><td><div>False</div></td></tr><tr><td><div>/admin/default/edit/bykr/views/default/user.html</div></td></tr></table></div></td></tr><tr><td><div><table><tr><td><div>DB Model</div></td></tr><tr><td><div>False</div></td></tr><tr><td><div>/admin/default/edit/bykr/models/db.py</div></td></tr></table></div></td></tr><tr><td><div><table><tr><td><div>Menu Model</div></td></tr><tr><td><div>False</div></td></tr><tr><td><div>/admin/default/edit/bykr/models/menu.py</div></td></tr></table></div></td></tr><tr><td><div><table><tr><td><div>Config.ini</div></td></tr><tr><td><div>False</div></td></tr><tr><td><div>/admin/default/edit/bykr/private/appconfig.ini</div></td></tr></table></div></td></tr><tr><td><div><table><tr><td><div>Layout</div></td></tr><tr><td><div>False</div></td></tr><tr><td><div>/admin/default/edit/bykr/views/layout.html</div></td></tr></table></div></td></tr><tr><td><div><table><tr><td><div>Stylesheet</div></td></tr><tr><td><div>False</div></td></tr><tr><td><div>/admin/default/edit/bykr/static/css/web2py-bootstrap3.css</div></td></tr></table></div></td></tr><tr><td><div><table><tr><td><div>Database</div></td></tr><tr><td><div>False</div></td></tr><tr><td><div>/bykr/appadmin/index</div></td></tr></table></div></td></tr><tr><td><div><table><tr><td><div>Errors</div></td></tr><tr><td><div>False</div></td></tr><tr><td><div>/admin/default/errors/bykr</div></td></tr></table></div></td></tr><tr><td><div><table><tr><td><div>About</div></td></tr><tr><td><div>False</div></td></tr><tr><td><div>/admin/default/about/bykr</div></td></tr></table></div></td></tr></table></div></td></tr></table></div></td></tr><tr><td><div><table><tr><td><div>web2py.com</div></td></tr><tr><td><div>False</div></td></tr><tr><td><div>#</div></td></tr><tr><td><div><table><tr><td><div><table><tr><td><div>Download</div></td></tr><tr><td><div>False</div></td></tr><tr><td><div>http://www.web2py.com/examples/default/download</div></td></tr></table></div></td></tr><tr><td><div><table><tr><td><div>Support</div></td></tr><tr><td><div>False</div></td></tr><tr><td><div>http://www.web2py.com/examples/default/support</div></td></tr></table></div></td></tr><tr><td><div><table><tr><td><div>Demo</div></td></tr><tr><td><div>False</div></td></tr><tr><td><div>http://web2py.com/demo_admin</div></td></tr></table></div></td></tr><tr><td><div><table><tr><td><div>Quick Examples</div></td></tr><tr><td><div>False</div></td></tr><tr><td><div>http://web2py.com/examples/default/examples</div></td></tr></table></div></td></tr><tr><td><div><table><tr><td><div>FAQ</div></td></tr><tr><td><div>False</div></td></tr><tr><td><div>http://web2py.com/AlterEgo</div></td></tr></table></div></td></tr><tr><td><div><table><tr><td><div>Videos</div></td></tr><tr><td><div>False</div></td></tr><tr><td><div>http://www.web2py.com/examples/default/videos/</div></td></tr></table></div></td></tr><tr><td><div><table><tr><td><div>Free Applications</div></td></tr><tr><td><div>False</div></td></tr><tr><td><div>http://web2py.com/appliances</div></td></tr></table></div></td></tr><tr><td><div><table><tr><td><div>Plugins</div></td></tr><tr><td><div>False</div></td></tr><tr><td><div>http://web2py.com/plugins</div></td></tr></table></div></td></tr><tr><td><div><table><tr><td><div>Recipes</div></td></tr><tr><td><div>False</div></td></tr><tr><td><div>http://web2pyslices.com/</div></td></tr></table></div></td></tr></table></div></td></tr></table></div></td></tr><tr><td><div><table><tr><td><div>Documentation</div></td></tr><tr><td><div>False</div></td></tr><tr><td><div>#</div></td></tr><tr><td><div><table><tr><td><div><table><tr><td><div>Online book</div></td></tr><tr><td><div>False</div></td></tr><tr><td><div>http://www.web2py.com/book</div></td></tr></table></div></td></tr><tr><td><div><table><tr><td><div>Preface</div></td></tr><tr><td><div>False</div></td></tr><tr><td><div>http://www.web2py.com/book/default/chapter/00</div></td></tr></table></div></td></tr><tr><td><div><table><tr><td><div>Introduction</div></td></tr><tr><td><div>False</div></td></tr><tr><td><div>http://www.web2py.com/book/default/chapter/01</div></td></tr></table></div></td></tr><tr><td><div><table><tr><td><div>Python</div></td></tr><tr><td><div>False</div></td></tr><tr><td><div>http://www.web2py.com/book/default/chapter/02</div></td></tr></table></div></td></tr><tr><td><div><table><tr><td><div>Overview</div></td></tr><tr><td><div>False</div></td></tr><tr><td><div>http://www.web2py.com/book/default/chapter/03</div></td></tr></table></div></td></tr><tr><td><div><table><tr><td><div>The Core</div></td></tr><tr><td><div>False</div></td></tr><tr><td><div>http://www.web2py.com/book/default/chapter/04</div></td></tr></table></div></td></tr><tr><td><div><table><tr><td><div>The Views</div></td></tr><tr><td><div>False</div></td></tr><tr><td><div>http://www.web2py.com/book/default/chapter/05</div></td></tr></table></div></td></tr><tr><td><div><table><tr><td><div>Database</div></td></tr><tr><td><div>False</div></td></tr><tr><td><div>http://www.web2py.com/book/default/chapter/06</div></td></tr></table></div></td></tr><tr><td><div><table><tr><td><div>Forms and Validators</div></td></tr><tr><td><div>False</div></td></tr><tr><td><div>http://www.web2py.com/book/default/chapter/07</div></td></tr></table></div></td></tr><tr><td><div><table><tr><td><div>Email and SMS</div></td></tr><tr><td><div>False</div></td></tr><tr><td><div>http://www.web2py.com/book/default/chapter/08</div></td></tr></table></div></td></tr><tr><td><div><table><tr><td><div>Access Control</div></td></tr><tr><td><div>False</div></td></tr><tr><td><div>http://www.web2py.com/book/default/chapter/09</div></td></tr></table></div></td></tr><tr><td><div><table><tr><td><div>Services</div></td></tr><tr><td><div>False</div></td></tr><tr><td><div>http://www.web2py.com/book/default/chapter/10</div></td></tr></table></div></td></tr><tr><td><div><table><tr><td><div>Ajax Recipes</div></td></tr><tr><td><div>False</div></td></tr><tr><td><div>http://www.web2py.com/book/default/chapter/11</div></td></tr></table></div></td></tr><tr><td><div><table><tr><td><div>Components and Plugins</div></td></tr><tr><td><div>False</div></td></tr><tr><td><div>http://www.web2py.com/book/default/chapter/12</div></td></tr></table></div></td></tr><tr><td><div><table><tr><td><div>Deployment Recipes</div></td></tr><tr><td><div>False</div></td></tr><tr><td><div>http://www.web2py.com/book/default/chapter/13</div></td></tr></table></div></td></tr><tr><td><div><table><tr><td><div>Other Recipes</div></td></tr><tr><td><div>False</div></td></tr><tr><td><div>http://www.web2py.com/book/default/chapter/14</div></td></tr></table></div></td></tr><tr><td><div><table><tr><td><div>Helping web2py</div></td></tr><tr><td><div>False</div></td></tr><tr><td><div>http://www.web2py.com/book/default/chapter/15</div></td></tr></table></div></td></tr><tr><td><div><table><tr><td><div>Buy web2py\'s book</div></td></tr><tr><td><div>False</div></td></tr><tr><td><div>http://stores.lulu.com/web2py</div></td></tr></table></div></td></tr></table></div></td></tr></table></div></td></tr><tr><td><div><table><tr><td><div>Community</div></td></tr><tr><td><div>False</div></td></tr><tr><td><div>None</div></td></tr><tr><td><div><table><tr><td><div><table><tr><td><div>Groups</div></td></tr><tr><td><div>False</div></td></tr><tr><td><div>http://www.web2py.com/examples/default/usergroups</div></td></tr></table></div></td></tr><tr><td><div><table><tr><td><div>Twitter</div></td></tr><tr><td><div>False</div></td></tr><tr><td><div>http://twitter.com/web2py</div></td></tr></table></div></td></tr><tr><td><div><table><tr><td><div>Live Chat</div></td></tr><tr><td><div>False</div></td></tr><tr><td><div>http://webchat.freenode.net/?channels=web2py</div></td></tr></table></div></td></tr></table></div></td></tr></table></div></td></tr></table></div></td></tr><tr><td style="font-weight:bold;vertical-align:top;">meta</td><td style="vertical-align:top;">:</td><td><div><table><tr><td style="font-weight:bold;vertical-align:top;">author</td><td style="vertical-align:top;">:</td><td><div>Your Name &lt;you@example.com&gt;</div></td></tr><tr><td style="font-weight:bold;vertical-align:top;">description</td><td style="vertical-align:top;">:</td><td><div>a cool new app</div></td></tr><tr><td style="font-weight:bold;vertical-align:top;">generator</td><td style="vertical-align:top;">:</td><td><div>Web2py Web Framework</div></td></tr><tr><td style="font-weight:bold;vertical-align:top;">keywords</td><td style="vertical-align:top;">:</td><td><div><table><tr><td><div>web2py</div></td></tr><tr><td><div>python</div></td></tr><tr><td><div>framework</div></td></tr></table></div></td></tr></table></div></td></tr><tr><td style="font-weight:bold;vertical-align:top;">models_to_run</td><td style="vertical-align:top;">:</td><td><div><table><tr><td><div>^\\w+\\.py$</div></td></tr><tr><td><div>^default/\\w+\\.py$</div></td></tr><tr><td><div>^default/user/\\w+\\.py$</div></td></tr></table></div></td></tr><tr><td style="font-weight:bold;vertical-align:top;">postprocessing</td><td style="vertical-align:top;">:</td><td><div><table></table></div></td></tr><tr><td style="font-weight:bold;vertical-align:top;">session_client</td><td style="vertical-align:top;">:</td><td><div>127.0.0.1</div></td></tr><tr><td style="font-weight:bold;vertical-align:top;">session_cookie_compression_level</td><td style="vertical-align:top;">:</td><td><div>None</div></td></tr><tr><td style="font-weight:bold;vertical-align:top;">session_cookie_expires</td><td style="vertical-align:top;">:</td><td><div>2592000</div></td></tr><tr><td style="font-weight:bold;vertical-align:top;">session_data_name</td><td style="vertical-align:top;">:</td><td><div>session_data_bykr</div></td></tr><tr><td style="font-weight:bold;vertical-align:top;">session_file</td><td style="vertical-align:top;">:</td><td><div>&lt;open file &#x27;/Users/brandon/Documents/UCSC/CMPS183/web2py/applications/bykr/sessions/0f7/1ef/127.0.0.1-8049ec63-9b87-4710-a34c-5addda91bf0b&#x27;, mode &#x27;rb+&#x27; at 0x1111af1e0&gt;</div></td></tr><tr><td style="font-weight:bold;vertical-align:top;">session_filename</td><td style="vertical-align:top;">:</td><td><div>/Users/brandon/Documents/UCSC/CMPS183/web2py/applications/bykr/sessions/127.0.0.1-8049ec63-9b87-4710-a34c-5addda91bf0b</div></td></tr><tr><td style="font-weight:bold;vertical-align:top;">session_hash</td><td style="vertical-align:top;">:</td><td><div>a21811e7e7e52a1ba2e69db88c151e3d</div></td></tr><tr><td style="font-weight:bold;vertical-align:top;">session_id</td><td style="vertical-align:top;">:</td><td><div>127.0.0.1-8049ec63-9b87-4710-a34c-5addda91bf0b</div></td></tr><tr><td style="font-weight:bold;vertical-align:top;">session_id_name</td><td style="vertical-align:top;">:</td><td><div>session_id_bykr</div></td></tr><tr><td style="font-weight:bold;vertical-align:top;">session_locked</td><td style="vertical-align:top;">:</td><td><div>True</div></td></tr><tr><td style="font-weight:bold;vertical-align:top;">session_masterapp</td><td style="vertical-align:top;">:</td><td><div>bykr</div></td></tr><tr><td style="font-weight:bold;vertical-align:top;">session_new</td><td style="vertical-align:top;">:</td><td><div>False</div></td></tr><tr><td style="font-weight:bold;vertical-align:top;">session_storage_type</td><td style="vertical-align:top;">:</td><td><div>file</div></td></tr><tr><td style="font-weight:bold;vertical-align:top;">show_toolbar</td><td style="vertical-align:top;">:</td><td><div>False</div></td></tr><tr><td style="font-weight:bold;vertical-align:top;">status</td><td style="vertical-align:top;">:</td><td><div>200</div></td></tr><tr><td style="font-weight:bold;vertical-align:top;">view</td><td style="vertical-align:top;">:</td><td><div>default/user.html</div></td></tr></table></div>'
tRp387
sS'locals'
p388
(dp389
S'handlers'
p390
S'[<pydal.helpers.classes.TimingHandler object>]'
p391
sS'self'
p392
S'<pydal.adapters.sqlite.SQLite object>'
p393
sg48
S'(\'SELECT "auth_user"."id", "auth_user"."first_name...d" FROM "auth_user" WHERE ("auth_user"."id" = 3);\',)'
p394
sS'handler'
p395
S'<pydal.helpers.classes.TimingHandler object>'
p396
sS'command'
p397
S'\'SELECT "auth_user"."id", "auth_user"."first_name...d" FROM "auth_user" WHERE ("auth_user"."id" = 3);\''
p398
sS'kwargs'
p399
g21
sssS'traceback'
p400
S'Traceback (most recent call last):\n  File "/Users/brandon/Documents/UCSC/CMPS183/web2py/gluon/restricted.py", line 219, in restricted\n    exec(ccode, environment)\n  File "/Users/brandon/Documents/UCSC/CMPS183/web2py/applications/bykr/controllers/default.py", line 74, in <module>\n  File "/Users/brandon/Documents/UCSC/CMPS183/web2py/gluon/globals.py", line 421, in <lambda>\n    self._caller = lambda f: f()\n  File "/Users/brandon/Documents/UCSC/CMPS183/web2py/applications/bykr/controllers/default.py", line 63, in user\n    return dict(form=auth())\n  File "/Users/brandon/Documents/UCSC/CMPS183/web2py/gluon/tools.py", line 1800, in __call__\n    return getattr(self, args[0])()\n  File "/Users/brandon/Documents/UCSC/CMPS183/web2py/gluon/tools.py", line 3656, in profile\n    deletable=self.settings.allow_delete_accounts,\n  File "/Users/brandon/Documents/UCSC/CMPS183/web2py/gluon/sqlhtml.py", line 1375, in __init__\n    record = table._db(table._id == record).select().first()\n  File "/Users/brandon/Documents/UCSC/CMPS183/web2py/gluon/packages/dal/pydal/objects.py", line 2275, in select\n    return adapter.select(self.query, fields, attributes)\n  File "/Users/brandon/Documents/UCSC/CMPS183/web2py/gluon/packages/dal/pydal/adapters/sqlite.py", line 82, in select\n    return super(SQLite, self).select(query, fields, attributes)\n  File "/Users/brandon/Documents/UCSC/CMPS183/web2py/gluon/packages/dal/pydal/adapters/base.py", line 763, in select\n    return self._select_aux(sql, fields, attributes, colnames)\n  File "/Users/brandon/Documents/UCSC/CMPS183/web2py/gluon/packages/dal/pydal/adapters/base.py", line 719, in _select_aux\n    rows = self._select_aux_execute(sql)\n  File "/Users/brandon/Documents/UCSC/CMPS183/web2py/gluon/packages/dal/pydal/adapters/base.py", line 713, in _select_aux_execute\n    self.execute(sql)\n  File "/Users/brandon/Documents/UCSC/CMPS183/web2py/gluon/packages/dal/pydal/adapters/__init__.py", line 67, in wrap\n    return f(*args, **kwargs)\n  File "/Users/brandon/Documents/UCSC/CMPS183/web2py/gluon/packages/dal/pydal/adapters/base.py", line 413, in execute\n    rv = self.cursor.execute(command, *args[1:], **kwargs)\nDatabaseError: database disk image is malformed\n'
p401
s.